; Function Attrs: mustprogress uwtable
define hidden void @_ZN19OpenColorIO_v2_5dev15LookParseResult9serializeERSoRKSt6vectorINS0_5TokenESaIS3_EE(ptr noundef nonnull align 8 dereferenceable(8) %0, ptr noundef nonnull readonly align 8 captures(none) dereferenceable(24) %1) local_unnamed_addr #3 align 2 {
  %3 = getelementptr inbounds nuw i8, ptr %1, i64 8
  %4 = load ptr, ptr %3, align 8, !tbaa !27
  %5 = load ptr, ptr %1, align 8, !tbaa !30
  %.not9 = icmp eq ptr %4, %5
  br i1 %.not9, label %._crit_edge, label %.lr.ph

._crit_edge:                                      ; preds = %_ZNK19OpenColorIO_v2_5dev15LookParseResult5Token9serializeERSo.exit, %2
  ret void

.lr.ph:                                           ; preds = %2, %_ZNK19OpenColorIO_v2_5dev15LookParseResult5Token9serializeERSo.exit
  %6 = phi ptr [ %21, %_ZNK19OpenColorIO_v2_5dev15LookParseResult5Token9serializeERSo.exit ], [ %5, %2 ]
  %7 = phi i64 [ %23, %_ZNK19OpenColorIO_v2_5dev15LookParseResult5Token9serializeERSo.exit ], [ 0, %2 ]
  %.08 = phi i32 [ %22, %_ZNK19OpenColorIO_v2_5dev15LookParseResult5Token9serializeERSo.exit ], [ 0, %2 ]
  %.not = icmp eq i32 %.08, 0
  br i1 %.not, label %10, label %8

8:                                                ; preds = %.lr.ph
  %9 = tail call noundef nonnull align 8 dereferenceable(8) ptr @_ZSt16__ostream_insertIcSt11char_traitsIcEERSt13basic_ostreamIT_T0_ES6_PKS3_l(ptr noundef nonnull align 8 dereferenceable(8) %0, ptr noundef nonnull @.str.1, i64 noundef 2)
  %.pre = load ptr, ptr %1, align 8, !tbaa !30
  br label %10

10:                                               ; preds = %8, %.lr.ph
  %11 = phi ptr [ %.pre, %8 ], [ %6, %.lr.ph ]
  %12 = getelementptr inbounds nuw %"struct.OpenColorIO_v2_5dev::LookParseResult::Token", ptr %11, i64 %7
  %13 = getelementptr inbounds nuw i8, ptr %12, i64 32
  %14 = load i32, ptr %13, align 8, !tbaa !24
  switch i32 %14, label %_ZNK19OpenColorIO_v2_5dev15LookParseResult5Token9serializeERSo.exit [
    i32 0, label %.sink.split.i
    i32 1, label %15
  ]

15:                                               ; preds = %10
  %16 = tail call noundef nonnull align 8 dereferenceable(8) ptr @_ZSt16__ostream_insertIcSt11char_traitsIcEERSt13basic_ostreamIT_T0_ES6_PKS3_l(ptr noundef nonnull align 8 dereferenceable(8) %0, ptr noundef nonnull @.str, i64 noundef 1)
  br label %.sink.split.i

.sink.split.i:                                    ; preds = %15, %10
  %17 = load ptr, ptr %12, align 8, !tbaa !11
  %18 = getelementptr inbounds nuw i8, ptr %12, i64 8
  %19 = load i64, ptr %18, align 8, !tbaa !3
  %20 = tail call noundef nonnull align 8 dereferenceable(8) ptr @_ZSt16__ostream_insertIcSt11char_traitsIcEERSt13basic_ostreamIT_T0_ES6_PKS3_l(ptr noundef nonnull align 8 dereferenceable(8) %0, ptr noundef %17, i64 noundef %19)
  %.pre10 = load ptr, ptr %1, align 8, !tbaa !30
  br label %_ZNK19OpenColorIO_v2_5dev15LookParseResult5Token9serializeERSo.exit

_ZNK19OpenColorIO_v2_5dev15LookParseResult5Token9serializeERSo.exit: ; preds = %10, %.sink.split.i
  %21 = phi ptr [ %11, %10 ], [ %.pre10, %.sink.split.i ]
  %22 = add i32 %.08, 1
  %23 = zext i32 %22 to i64
  %24 = load ptr, ptr %3, align 8, !tbaa !27
  %25 = ptrtoint ptr %24 to i64
  %26 = ptrtoint ptr %21 to i64
  %27 = sub i64 %25, %26
  %28 = sdiv exact i64 %27, 40
  %29 = icmp ugt i64 %28, %23
  br i1 %29, label %.lr.ph, label %._crit_edge, !llvm.loop !31
}